target datalayout = "e-m:e-p270:32:32-p271:32:32-p272:64:64-i64:64-i128:128-f80:128-n8:16:32:64-S128"
target triple = "x86_64-pc-linux-gnu"

; Function Attrs: nounwind uwtable
define dso_local void @bit_set(ptr noundef %0, i64 noundef %1) #0 {
  %3 = alloca ptr, align 8
  %4 = alloca i64, align 8
  store ptr %0, ptr %3, align 8
  store i64 %1, ptr %4, align 8
  br label %5

5:                                                ; preds = %2
  br label %6

6:                                                ; preds = %5
  br label %7

7:                                                ; preds = %6
  br label %8

8:                                                ; preds = %7
  %9 = load i64, ptr %4, align 8
  %10 = and i64 %9, 63
  %11 = shl i64 1, %10
  %12 = load ptr, ptr %3, align 8
  %13 = load i64, ptr %4, align 8
  %14 = ashr i64 %13, 6
  %15 = add nsw i64 %14, 2
  %16 = getelementptr inbounds i64, ptr %12, i64 %15
  %17 = load i64, ptr %16, align 8
  %18 = or i64 %17, %11
  store i64 %18, ptr %16, align 8
  ret void
}

; Function Attrs: nounwind uwtable
define dso_local i64 @bit_size(ptr noundef %0) #0 {
  %2 = alloca ptr, align 8
  store ptr %0, ptr %2, align 8
  br label %3

3:                                                ; preds = %1
  br label %4

4:                                                ; preds = %3
  %5 = load ptr, ptr %2, align 8
  %6 = getelementptr inbounds i64, ptr %5, i64 1
  %7 = load i64, ptr %6, align 8
  ret i64 %7
}

; Function Attrs: nounwind uwtable
define dso_local ptr @bit_rotate_copy(ptr noundef %0, i32 noundef %1, i64 noundef %2) #0 {
  %4 = alloca ptr, align 8
  %5 = alloca i32, align 4
  %6 = alloca i64, align 8
  %7 = alloca i64, align 8
  %8 = alloca i64, align 8
  %9 = alloca ptr, align 8
  %10 = alloca i64, align 8
  %11 = alloca i64, align 8
  %12 = alloca i64, align 8
  store ptr %0, ptr %4, align 8
  store i32 %1, ptr %5, align 4
  store i64 %2, ptr %6, align 8
  call void @llvm.lifetime.start.p0(i64 8, ptr %7) #12
  call void @llvm.lifetime.start.p0(i64 8, ptr %8) #12
  call void @llvm.lifetime.start.p0(i64 8, ptr %9) #12
  call void @llvm.lifetime.start.p0(i64 8, ptr %10) #12
  call void @llvm.lifetime.start.p0(i64 8, ptr %11) #12
  call void @llvm.lifetime.start.p0(i64 8, ptr %12) #12
  br label %13

13:                                               ; preds = %3
  br label %14

14:                                               ; preds = %13
  br label %15

15:                                               ; preds = %14
  %16 = load ptr, ptr %4, align 8
  %17 = call i64 @bit_size(ptr noundef %16)
  store i64 %17, ptr %10, align 8
  %18 = load i64, ptr %6, align 8
  %19 = load i64, ptr %10, align 8
  %20 = sub nsw i64 %18, %19
  store i64 %20, ptr %11, align 8
  %21 = load i32, ptr %5, align 4
  %22 = sext i32 %21 to i64
  %23 = load i64, ptr %6, align 8
  %24 = srem i64 %22, %23
  %25 = trunc i64 %24 to i32
  store i32 %25, ptr %5, align 4
  %26 = load i32, ptr %5, align 4
  %27 = icmp slt i32 %26, 0
  br i1 %27, label %28, label %34

28:                                               ; preds = %15
  %29 = load i64, ptr %6, align 8
  %30 = load i32, ptr %5, align 4
  %31 = sext i32 %30 to i64
  %32 = add nsw i64 %31, %29
  %33 = trunc i64 %32 to i32
  store i32 %33, ptr %5, align 4
  br label %34

34:                                               ; preds = %28, %15
  store i64 0, ptr %12, align 8
  %35 = load i32, ptr %5, align 4
  %36 = sext i32 %35 to i64
  %37 = load i64, ptr %11, align 8
  %38 = icmp sgt i64 %36, %37
  br i1 %38, label %39, label %44

39:                                               ; preds = %34
  %40 = load i32, ptr %5, align 4
  %41 = sext i32 %40 to i64
  %42 = load i64, ptr %11, align 8
  %43 = sub nsw i64 %41, %42
  store i64 %43, ptr %12, align 8
  br label %44

44:                                               ; preds = %39, %34
  %45 = load i64, ptr %6, align 8
  %46 = call ptr @bit_alloc(i64 noundef %45)
  store ptr %46, ptr %9, align 8
  store i64 0, ptr %7, align 8
  br label %47

47:                                               ; preds = %74, %44
  %48 = load i64, ptr %7, align 8
  %49 = load i64, ptr %10, align 8
  %50 = load i64, ptr %12, align 8
  %51 = sub nsw i64 %49, %50
  %52 = icmp slt i64 %48, %51
  br i1 %52, label %53, label %77

53:                                               ; preds = %47
  %54 = load ptr, ptr %4, align 8
  %55 = load i64, ptr %7, align 8
  %56 = ashr i64 %55, 6
  %57 = add nsw i64 %56, 2
  %58 = getelementptr inbounds i64, ptr %54, i64 %57
  %59 = load i64, ptr %58, align 8
  %60 = load i64, ptr %7, align 8
  %61 = and i64 %60, 63
  %62 = shl i64 1, %61
  %63 = and i64 %59, %62
  %64 = icmp ne i64 %63, 0
  br i1 %64, label %65, label %66

65:                                               ; preds = %53
  br i1 true, label %67, label %73

66:                                               ; preds = %53
  br i1 false, label %67, label %73

67:                                               ; preds = %66, %65
  %68 = load ptr, ptr %9, align 8
  %69 = load i64, ptr %7, align 8
  %70 = load i32, ptr %5, align 4
  %71 = sext i32 %70 to i64
  %72 = add nsw i64 %69, %71
  call void @bit_set(ptr noundef %68, i64 noundef %72)
  br label %73

73:                                               ; preds = %67, %66, %65
  br label %74

74:                                               ; preds = %73
  %75 = load i64, ptr %7, align 8
  %76 = add nsw i64 %75, 1
  store i64 %76, ptr %7, align 8
  br label %47, !llvm.loop !22

77:                                               ; preds = %47
  store i64 0, ptr %8, align 8
  br label %78

78:                                               ; preds = %100, %77
  %79 = load i64, ptr %7, align 8
  %80 = load i64, ptr %10, align 8
  %81 = icmp slt i64 %79, %80
  br i1 %81, label %82, label %105

82:                                               ; preds = %78
  %83 = load ptr, ptr %4, align 8
  %84 = load i64, ptr %7, align 8
  %85 = ashr i64 %84, 6
  %86 = add nsw i64 %85, 2
  %87 = getelementptr inbounds i64, ptr %83, i64 %86
  %88 = load i64, ptr %87, align 8
  %89 = load i64, ptr %7, align 8
  %90 = and i64 %89, 63
  %91 = shl i64 1, %90
  %92 = and i64 %88, %91
  %93 = icmp ne i64 %92, 0
  br i1 %93, label %94, label %95

94:                                               ; preds = %82
  br i1 true, label %96, label %99

95:                                               ; preds = %82
  br i1 false, label %96, label %99

96:                                               ; preds = %95, %94
  %97 = load ptr, ptr %9, align 8
  %98 = load i64, ptr %8, align 8
  call void @bit_set(ptr noundef %97, i64 noundef %98)
  br label %99

99:                                               ; preds = %96, %95, %94
  br label %100

100:                                              ; preds = %99
  %101 = load i64, ptr %7, align 8
  %102 = add nsw i64 %101, 1
  store i64 %102, ptr %7, align 8
  %103 = load i64, ptr %8, align 8
  %104 = add nsw i64 %103, 1
  store i64 %104, ptr %8, align 8
  br label %78, !llvm.loop !23

105:                                              ; preds = %78
  %106 = load ptr, ptr %9, align 8
  call void @llvm.lifetime.end.p0(i64 8, ptr %12) #12
  call void @llvm.lifetime.end.p0(i64 8, ptr %11) #12
  call void @llvm.lifetime.end.p0(i64 8, ptr %10) #12
  call void @llvm.lifetime.end.p0(i64 8, ptr %9) #12
  call void @llvm.lifetime.end.p0(i64 8, ptr %8) #12
  call void @llvm.lifetime.end.p0(i64 8, ptr %7) #12
  ret ptr %106
}