; Function Attrs: nounwind uwtable
define dso_local noundef ptr @bit_rotate_copy(ptr noundef readonly captures(none) %0, i32 noundef %1, i64 noundef %2) #0 {
  %4 = getelementptr inbounds nuw i8, ptr %0, i64 8
  %5 = load i64, ptr %4, align 8
  %6 = sub nsw i64 %2, %5
  %7 = sext i32 %1 to i64
  %8 = srem i64 %7, %2
  %9 = icmp slt i64 %8, 0
  %10 = select i1 %9, i64 %2, i64 0
  %spec.select = add nsw i64 %10, %8
  %sext = shl i64 %spec.select, 32
  %11 = ashr exact i64 %sext, 32
  %12 = icmp sgt i64 %11, %6
  %.neg = sub i64 %6, %11
  %.0.neg = select i1 %12, i64 %.neg, i64 0
  %13 = tail call ptr @bit_alloc(i64 noundef %2)
  %14 = add i64 %.0.neg, %5
  %invariant.gep = getelementptr inbounds nuw i8, ptr %0, i64 16
  %invariant.gep40 = getelementptr i8, ptr %13, i64 16
  %15 = icmp sgt i64 %14, 0
  br i1 %15, label %.lr.ph, label %.preheader

.preheader:                                       ; preds = %30, %3
  %.033.lcssa = phi i64 [ 0, %3 ], [ %31, %30 ]
  %16 = icmp slt i64 %.033.lcssa, %5
  br i1 %16, label %.lr.ph49.preheader, label %._crit_edge

.lr.ph49.preheader:                               ; preds = %.preheader
  %17 = sub i64 %5, %.033.lcssa
  br label %.lr.ph49

.lr.ph:                                           ; preds = %3, %30
  %.03342 = phi i64 [ %31, %30 ], [ 0, %3 ]
  %18 = lshr i64 %.03342, 6
  %gep = getelementptr inbounds nuw i64, ptr %invariant.gep, i64 %18
  %19 = load i64, ptr %gep, align 8
  %20 = and i64 %.03342, 63
  %21 = shl nuw i64 1, %20
  %22 = and i64 %19, %21
  %.not39 = icmp eq i64 %22, 0
  br i1 %.not39, label %30, label %23

23:                                               ; preds = %.lr.ph
  %24 = add nsw i64 %.03342, %11
  %25 = and i64 %24, 63
  %26 = shl nuw i64 1, %25
  %27 = ashr i64 %24, 6
  %gep41 = getelementptr i64, ptr %invariant.gep40, i64 %27
  %28 = load i64, ptr %gep41, align 8
  %29 = or i64 %28, %26
  store i64 %29, ptr %gep41, align 8
  br label %30

30:                                               ; preds = %23, %.lr.ph
  %31 = add nuw nsw i64 %.03342, 1
  %32 = icmp slt i64 %31, %14
  br i1 %32, label %.lr.ph, label %.preheader, !llvm.loop !23

.lr.ph49:                                         ; preds = %.lr.ph49.preheader, %44
  %.148 = phi i64 [ %45, %44 ], [ %.033.lcssa, %.lr.ph49.preheader ]
  %.03447 = phi i64 [ %46, %44 ], [ 0, %.lr.ph49.preheader ]
  %33 = lshr i64 %.148, 6
  %gep44 = getelementptr inbounds nuw i64, ptr %invariant.gep, i64 %33
  %34 = load i64, ptr %gep44, align 8
  %35 = and i64 %.148, 63
  %36 = shl nuw i64 1, %35
  %37 = and i64 %34, %36
  %.not = icmp eq i64 %37, 0
  br i1 %.not, label %44, label %38

38:                                               ; preds = %.lr.ph49
  %39 = and i64 %.03447, 63
  %40 = shl nuw i64 1, %39
  %41 = lshr i64 %.03447, 6
  %gep46 = getelementptr i64, ptr %invariant.gep40, i64 %41
  %42 = load i64, ptr %gep46, align 8
  %43 = or i64 %42, %40
  store i64 %43, ptr %gep46, align 8
  br label %44

44:                                               ; preds = %38, %.lr.ph49
  %45 = add nuw nsw i64 %.148, 1
  %46 = add nuw i64 %.03447, 1
  %exitcond.not = icmp eq i64 %46, %17
  br i1 %exitcond.not, label %._crit_edge, label %.lr.ph49, !llvm.loop !24

._crit_edge:                                      ; preds = %44, %.preheader
  ret ptr %13
}